; Function Attrs: nounwind uwtable
define ptr @Saig_ManUnrollCOI_(ptr noundef %0, i32 noundef %1) local_unnamed_addr #0 {
  %3 = alloca ptr, align 8
  call void @llvm.lifetime.start.p0(i64 8, ptr nonnull %3) #16
  %4 = call ptr @Aig_ManFrames(ptr noundef %0, i32 noundef %1, i32 noundef 0, i32 noundef 1, i32 noundef 1, i32 noundef 0, ptr noundef nonnull %3) #16
  %5 = getelementptr i8, ptr %0, i64 32
  %.val = load ptr, ptr %5, align 8, !tbaa !25
  %6 = getelementptr i8, ptr %.val, i64 4
  %.val.val = load i32, ptr %6, align 4, !tbaa !26
  %7 = mul nsw i32 %.val.val, %1
  %8 = icmp sgt i32 %7, 0
  %.pre = load ptr, ptr %3, align 8, !tbaa !89
  br i1 %8, label %.lr.ph, label %._crit_edge

.lr.ph:                                           ; preds = %2
  %wide.trip.count = zext nneg i32 %7 to i64
  br label %9

9:                                                ; preds = %.lr.ph, %19
  %indvars.iv = phi i64 [ 0, %.lr.ph ], [ %indvars.iv.next, %19 ]
  %10 = getelementptr inbounds nuw ptr, ptr %.pre, i64 %indvars.iv
  %11 = load ptr, ptr %10, align 8, !tbaa !72
  %.not = icmp eq ptr %11, null
  br i1 %.not, label %19, label %12

12:                                               ; preds = %9
  %13 = ptrtoint ptr %11 to i64
  %14 = and i64 %13, -2
  %15 = inttoptr i64 %14 to ptr
  %16 = getelementptr i8, ptr %15, i64 24
  %.val12 = load i64, ptr %16, align 8
  %17 = and i64 %.val12, 7
  %.not13 = icmp eq i64 %17, 0
  br i1 %.not13, label %18, label %19

18:                                               ; preds = %12
  store ptr null, ptr %10, align 8, !tbaa !72
  br label %19

19:                                               ; preds = %9, %12, %18
  %indvars.iv.next = add nuw nsw i64 %indvars.iv, 1
  %exitcond.not = icmp eq i64 %indvars.iv.next, %wide.trip.count
  br i1 %exitcond.not, label %._crit_edge, label %9, !llvm.loop !90

._crit_edge:                                      ; preds = %19, %2
  %20 = getelementptr inbounds nuw i8, ptr %0, i64 328
  store ptr %.pre, ptr %20, align 8, !tbaa !91
  call void @llvm.lifetime.end.p0(i64 8, ptr nonnull %3) #16
  ret ptr %4
}